; Function Attrs: mustprogress uwtable
define hidden void @_ZN2cv13RHO_HEST_REFCC2ERKS0_(ptr noundef nonnull align 8 dereferenceable(452) initializes((0, 8), (216, 240)) %0, ptr nonnull readnone align 8 captures(none) %1) unnamed_addr #3 align 2 personality ptr @__gxx_personality_v0 {
  store ptr getelementptr inbounds nuw inrange(-16, 64) (i8, ptr @_ZTVN2cv13RHO_HEST_REFCE, i64 16), ptr %0, align 8, !tbaa !3
  %3 = getelementptr inbounds nuw i8, ptr %0, i64 216
  tail call void @llvm.memset.p0.i64(ptr noundef nonnull align 8 dereferenceable(40) %3, i8 0, i64 24, i1 false)
  %4 = getelementptr inbounds nuw i8, ptr %0, i64 352
  invoke void @_ZN2cv5utils10BufferAreaC1Eb(ptr noundef nonnull align 8 dereferenceable(41) %4, i1 noundef zeroext false)
          to label %5 unwind label %9

5:                                                ; preds = %2
  %6 = getelementptr inbounds nuw i8, ptr %0, i64 400
  invoke void @_ZN2cv5utils10BufferAreaC1Eb(ptr noundef nonnull align 8 dereferenceable(41) %6, i1 noundef zeroext false)
          to label %7 unwind label %11

7:                                                ; preds = %5
  %8 = getelementptr inbounds nuw i8, ptr %0, i64 448
  store i32 0, ptr %8, align 8, !tbaa !11
  ret void

9:                                                ; preds = %2
  %10 = landingpad { ptr, i32 }
          cleanup
  br label %13

11:                                               ; preds = %5
  %12 = landingpad { ptr, i32 }
          cleanup
  tail call void @_ZN2cv5utils10BufferAreaD1Ev(ptr noundef nonnull align 8 dereferenceable(41) %4) #23
  br label %13

13:                                               ; preds = %11, %9
  %.pn = phi { ptr, i32 } [ %12, %11 ], [ %10, %9 ]
  %14 = load ptr, ptr %3, align 8, !tbaa !6
  %.not.i.i.i.i = icmp eq ptr %14, null
  br i1 %.not.i.i.i.i, label %_ZN2cv13RHO_HEST_REFCUt3_D2Ev.exit, label %15

15:                                               ; preds = %13
  tail call void @_ZdlPv(ptr noundef nonnull %14) #24
  br label %_ZN2cv13RHO_HEST_REFCUt3_D2Ev.exit

_ZN2cv13RHO_HEST_REFCUt3_D2Ev.exit:               ; preds = %13, %15
  resume { ptr, i32 } %.pn
}